target datalayout = "e-m:e-p270:32:32-p271:32:32-p272:64:64-i64:64-i128:128-f80:128-n8:16:32:64-S128"
target triple = "x86_64-pc-linux-gnu"

%struct.switch_record_t = type { i32, i32, ptr, ptr, ptr, i16, i16, i16, ptr, ptr, ptr, ptr }
%struct.topoinfo_tree = type { i32, ptr }
%struct.topo_info = type { i16, i32, ptr, ptr, ptr }
%struct.dynamic_plugin_data = type { ptr, i32 }

@switch_record_cnt = external global i32, align 4
@switch_record_table = external global ptr, align 8
@.str.12 = private unnamed_addr constant [16 x i8] c"topology_tree.c\00", align 1
@__func__.topology_p_get = private unnamed_addr constant [15 x i8] c"topology_p_get\00", align 1
@.str.14 = private unnamed_addr constant [22 x i8] c"Unsupported option %d\00", align 1

; Function Attrs: nounwind uwtable
define dso_local i32 @topology_p_get(i32 noundef %0, ptr noundef %1) #0 {
  %3 = alloca i32, align 4
  %4 = alloca ptr, align 8
  %5 = alloca i32, align 4
  %6 = alloca ptr, align 8
  %7 = alloca ptr, align 8
  %8 = alloca i32, align 4
  %9 = alloca ptr, align 8
  %10 = alloca ptr, align 8
  store i32 %0, ptr %3, align 4
  store ptr %1, ptr %4, align 8
  call void @llvm.lifetime.start.p0(i64 4, ptr %5) #10
  store i32 0, ptr %5, align 4
  %11 = load i32, ptr %3, align 4
  switch i32 %11, label %122 [
    i32 0, label %12
    i32 1, label %115
    i32 2, label %119
  ]

12:                                               ; preds = %2
  call void @llvm.lifetime.start.p0(i64 8, ptr %6) #10
  %13 = load ptr, ptr %4, align 8
  store ptr %13, ptr %6, align 8
  call void @llvm.lifetime.start.p0(i64 8, ptr %7) #10
  %14 = call ptr @slurm_xcalloc(i64 noundef 1, i64 noundef 16, i1 noundef zeroext true, i1 noundef zeroext false, ptr noundef @.str.12, i32 noundef 544, ptr noundef @__func__.topology_p_get)
  store ptr %14, ptr %7, align 8
  %15 = call ptr @slurm_xcalloc(i64 noundef 1, i64 noundef 16, i1 noundef zeroext true, i1 noundef zeroext false, ptr noundef @.str.12, i32 noundef 546, ptr noundef @__func__.topology_p_get)
  %16 = load ptr, ptr %6, align 8
  store ptr %15, ptr %16, align 8
  %17 = load ptr, ptr %7, align 8
  %18 = load ptr, ptr %6, align 8
  %19 = load ptr, ptr %18, align 8
  %20 = getelementptr inbounds nuw %struct.dynamic_plugin_data, ptr %19, i32 0, i32 0
  store ptr %17, ptr %20, align 8
  %21 = load ptr, ptr %6, align 8
  %22 = load ptr, ptr %21, align 8
  %23 = getelementptr inbounds nuw %struct.dynamic_plugin_data, ptr %22, i32 0, i32 1
  store i32 102, ptr %23, align 8
  %24 = load i32, ptr @switch_record_cnt, align 4
  %25 = load ptr, ptr %7, align 8
  %26 = getelementptr inbounds nuw %struct.topoinfo_tree, ptr %25, i32 0, i32 0
  store i32 %24, ptr %26, align 8
  %27 = load ptr, ptr %7, align 8
  %28 = getelementptr inbounds nuw %struct.topoinfo_tree, ptr %27, i32 0, i32 0
  %29 = load i32, ptr %28, align 8
  %30 = zext i32 %29 to i64
  %31 = call ptr @slurm_xcalloc(i64 noundef %30, i64 noundef 32, i1 noundef zeroext true, i1 noundef zeroext false, ptr noundef @.str.12, i32 noundef 552, ptr noundef @__func__.topology_p_get)
  %32 = load ptr, ptr %7, align 8
  %33 = getelementptr inbounds nuw %struct.topoinfo_tree, ptr %32, i32 0, i32 1
  store ptr %31, ptr %33, align 8
  call void @llvm.lifetime.start.p0(i64 4, ptr %8) #10
  store i32 0, ptr %8, align 4
  br label %34

34:                                               ; preds = %111, %12
  %35 = load i32, ptr %8, align 4
  %36 = load ptr, ptr %7, align 8
  %37 = getelementptr inbounds nuw %struct.topoinfo_tree, ptr %36, i32 0, i32 0
  %38 = load i32, ptr %37, align 8
  %39 = icmp ult i32 %35, %38
  br i1 %39, label %41, label %40

40:                                               ; preds = %34
  call void @llvm.lifetime.end.p0(i64 4, ptr %8) #10
  br label %114

41:                                               ; preds = %34
  %42 = load ptr, ptr @switch_record_table, align 8
  %43 = load i32, ptr %8, align 4
  %44 = sext i32 %43 to i64
  %45 = getelementptr inbounds %struct.switch_record_t, ptr %42, i64 %44
  %46 = getelementptr inbounds nuw %struct.switch_record_t, ptr %45, i32 0, i32 0
  %47 = load i32, ptr %46, align 8
  %48 = trunc i32 %47 to i16
  %49 = load ptr, ptr %7, align 8
  %50 = getelementptr inbounds nuw %struct.topoinfo_tree, ptr %49, i32 0, i32 1
  %51 = load ptr, ptr %50, align 8
  %52 = load i32, ptr %8, align 4
  %53 = sext i32 %52 to i64
  %54 = getelementptr inbounds %struct.topo_info, ptr %51, i64 %53
  %55 = getelementptr inbounds nuw %struct.topo_info, ptr %54, i32 0, i32 0
  store i16 %48, ptr %55, align 8
  %56 = load ptr, ptr @switch_record_table, align 8
  %57 = load i32, ptr %8, align 4
  %58 = sext i32 %57 to i64
  %59 = getelementptr inbounds %struct.switch_record_t, ptr %56, i64 %58
  %60 = getelementptr inbounds nuw %struct.switch_record_t, ptr %59, i32 0, i32 1
  %61 = load i32, ptr %60, align 4
  %62 = load ptr, ptr %7, align 8
  %63 = getelementptr inbounds nuw %struct.topoinfo_tree, ptr %62, i32 0, i32 1
  %64 = load ptr, ptr %63, align 8
  %65 = load i32, ptr %8, align 4
  %66 = sext i32 %65 to i64
  %67 = getelementptr inbounds %struct.topo_info, ptr %64, i64 %66
  %68 = getelementptr inbounds nuw %struct.topo_info, ptr %67, i32 0, i32 1
  store i32 %61, ptr %68, align 4
  %69 = load ptr, ptr @switch_record_table, align 8
  %70 = load i32, ptr %8, align 4
  %71 = sext i32 %70 to i64
  %72 = getelementptr inbounds %struct.switch_record_t, ptr %69, i64 %71
  %73 = getelementptr inbounds nuw %struct.switch_record_t, ptr %72, i32 0, i32 2
  %74 = load ptr, ptr %73, align 8
  %75 = call ptr @slurm_xstrdup(ptr noundef %74)
  %76 = load ptr, ptr %7, align 8
  %77 = getelementptr inbounds nuw %struct.topoinfo_tree, ptr %76, i32 0, i32 1
  %78 = load ptr, ptr %77, align 8
  %79 = load i32, ptr %8, align 4
  %80 = sext i32 %79 to i64
  %81 = getelementptr inbounds %struct.topo_info, ptr %78, i64 %80
  %82 = getelementptr inbounds nuw %struct.topo_info, ptr %81, i32 0, i32 2
  store ptr %75, ptr %82, align 8
  %83 = load ptr, ptr @switch_record_table, align 8
  %84 = load i32, ptr %8, align 4
  %85 = sext i32 %84 to i64
  %86 = getelementptr inbounds %struct.switch_record_t, ptr %83, i64 %85
  %87 = getelementptr inbounds nuw %struct.switch_record_t, ptr %86, i32 0, i32 4
  %88 = load ptr, ptr %87, align 8
  %89 = call ptr @slurm_xstrdup(ptr noundef %88)
  %90 = load ptr, ptr %7, align 8
  %91 = getelementptr inbounds nuw %struct.topoinfo_tree, ptr %90, i32 0, i32 1
  %92 = load ptr, ptr %91, align 8
  %93 = load i32, ptr %8, align 4
  %94 = sext i32 %93 to i64
  %95 = getelementptr inbounds %struct.topo_info, ptr %92, i64 %94
  %96 = getelementptr inbounds nuw %struct.topo_info, ptr %95, i32 0, i32 3
  store ptr %89, ptr %96, align 8
  %97 = load ptr, ptr @switch_record_table, align 8
  %98 = load i32, ptr %8, align 4
  %99 = sext i32 %98 to i64
  %100 = getelementptr inbounds %struct.switch_record_t, ptr %97, i64 %99
  %101 = getelementptr inbounds nuw %struct.switch_record_t, ptr %100, i32 0, i32 8
  %102 = load ptr, ptr %101, align 8
  %103 = call ptr @slurm_xstrdup(ptr noundef %102)
  %104 = load ptr, ptr %7, align 8
  %105 = getelementptr inbounds nuw %struct.topoinfo_tree, ptr %104, i32 0, i32 1
  %106 = load ptr, ptr %105, align 8
  %107 = load i32, ptr %8, align 4
  %108 = sext i32 %107 to i64
  %109 = getelementptr inbounds %struct.topo_info, ptr %106, i64 %108
  %110 = getelementptr inbounds nuw %struct.topo_info, ptr %109, i32 0, i32 4
  store ptr %103, ptr %110, align 8
  br label %111

111:                                              ; preds = %41
  %112 = load i32, ptr %8, align 4
  %113 = add nsw i32 %112, 1
  store i32 %113, ptr %8, align 4
  br label %34, !llvm.loop !25

114:                                              ; preds = %40
  call void @llvm.lifetime.end.p0(i64 8, ptr %7) #10
  call void @llvm.lifetime.end.p0(i64 8, ptr %6) #10
  br label %125

115:                                              ; preds = %2
  call void @llvm.lifetime.start.p0(i64 8, ptr %9) #10
  %116 = load ptr, ptr %4, align 8
  store ptr %116, ptr %9, align 8
  %117 = load i32, ptr @switch_record_cnt, align 4
  %118 = load ptr, ptr %9, align 8
  store i32 %117, ptr %118, align 4
  call void @llvm.lifetime.end.p0(i64 8, ptr %9) #10
  br label %125

119:                                              ; preds = %2
  call void @llvm.lifetime.start.p0(i64 8, ptr %10) #10
  %120 = load ptr, ptr %4, align 8
  store ptr %120, ptr %10, align 8
  %121 = load ptr, ptr %10, align 8
  store i32 0, ptr %121, align 4
  call void @llvm.lifetime.end.p0(i64 8, ptr %10) #10
  br label %125

122:                                              ; preds = %2
  %123 = load i32, ptr %3, align 4
  %124 = call i32 (ptr, ...) @slurm_error(ptr noundef @.str.14, i32 noundef %123)
  store i32 -1, ptr %5, align 4
  br label %125

125:                                              ; preds = %122, %119, %115, %114
  %126 = load i32, ptr %5, align 4
  call void @llvm.lifetime.end.p0(i64 4, ptr %5) #10
  ret i32 %126
}