; Function Attrs: nounwind uwtable
define dso_local range(i32 -1, 1) i32 @topology_p_get(i32 noundef %0, ptr noundef captures(none) %1) local_unnamed_addr #0 {
  switch i32 %0, label %48 [
    i32 0, label %3
    i32 1, label %45
    i32 2, label %47
  ]

3:                                                ; preds = %2
  %4 = tail call ptr @slurm_xcalloc(i64 noundef 1, i64 noundef 16, i1 noundef zeroext true, i1 noundef zeroext false, ptr noundef nonnull @.str.12, i32 noundef 544, ptr noundef nonnull @__func__.topology_p_get) #13
  %5 = tail call ptr @slurm_xcalloc(i64 noundef 1, i64 noundef 16, i1 noundef zeroext true, i1 noundef zeroext false, ptr noundef nonnull @.str.12, i32 noundef 546, ptr noundef nonnull @__func__.topology_p_get) #13
  store ptr %5, ptr %1, align 8
  store ptr %4, ptr %5, align 8
  %6 = load ptr, ptr %1, align 8
  %7 = getelementptr inbounds nuw i8, ptr %6, i64 8
  store i32 102, ptr %7, align 8
  %8 = load i32, ptr @switch_record_cnt, align 4
  store i32 %8, ptr %4, align 8
  %9 = zext i32 %8 to i64
  %10 = tail call ptr @slurm_xcalloc(i64 noundef %9, i64 noundef 32, i1 noundef zeroext true, i1 noundef zeroext false, ptr noundef nonnull @.str.12, i32 noundef 552, ptr noundef nonnull @__func__.topology_p_get) #13
  %11 = getelementptr inbounds nuw i8, ptr %4, i64 8
  store ptr %10, ptr %11, align 8
  %12 = load i32, ptr %4, align 8
  %.not = icmp eq i32 %12, 0
  br i1 %.not, label %.loopexit, label %.lr.ph

.lr.ph:                                           ; preds = %3, %.lr.ph
  %indvars.iv = phi i64 [ %indvars.iv.next, %.lr.ph ], [ 0, %3 ]
  %13 = load ptr, ptr @switch_record_table, align 8
  %14 = getelementptr inbounds nuw %struct.switch_record_t, ptr %13, i64 %indvars.iv
  %15 = load i32, ptr %14, align 8
  %16 = trunc i32 %15 to i16
  %17 = load ptr, ptr %11, align 8
  %18 = getelementptr inbounds nuw %struct.topo_info, ptr %17, i64 %indvars.iv
  store i16 %16, ptr %18, align 8
  %19 = load ptr, ptr @switch_record_table, align 8
  %20 = getelementptr inbounds nuw %struct.switch_record_t, ptr %19, i64 %indvars.iv, i32 1
  %21 = load i32, ptr %20, align 4
  %22 = load ptr, ptr %11, align 8
  %23 = getelementptr inbounds nuw %struct.topo_info, ptr %22, i64 %indvars.iv, i32 1
  store i32 %21, ptr %23, align 4
  %24 = load ptr, ptr @switch_record_table, align 8
  %25 = getelementptr inbounds nuw %struct.switch_record_t, ptr %24, i64 %indvars.iv, i32 2
  %26 = load ptr, ptr %25, align 8
  %27 = tail call ptr @slurm_xstrdup(ptr noundef %26) #13
  %28 = load ptr, ptr %11, align 8
  %29 = getelementptr inbounds nuw %struct.topo_info, ptr %28, i64 %indvars.iv, i32 2
  store ptr %27, ptr %29, align 8
  %30 = load ptr, ptr @switch_record_table, align 8
  %31 = getelementptr inbounds nuw %struct.switch_record_t, ptr %30, i64 %indvars.iv, i32 4
  %32 = load ptr, ptr %31, align 8
  %33 = tail call ptr @slurm_xstrdup(ptr noundef %32) #13
  %34 = load ptr, ptr %11, align 8
  %35 = getelementptr inbounds nuw %struct.topo_info, ptr %34, i64 %indvars.iv, i32 3
  store ptr %33, ptr %35, align 8
  %36 = load ptr, ptr @switch_record_table, align 8
  %37 = getelementptr inbounds nuw %struct.switch_record_t, ptr %36, i64 %indvars.iv, i32 8
  %38 = load ptr, ptr %37, align 8
  %39 = tail call ptr @slurm_xstrdup(ptr noundef %38) #13
  %40 = load ptr, ptr %11, align 8
  %41 = getelementptr inbounds nuw %struct.topo_info, ptr %40, i64 %indvars.iv, i32 4
  store ptr %39, ptr %41, align 8
  %indvars.iv.next = add nuw nsw i64 %indvars.iv, 1
  %42 = load i32, ptr %4, align 8
  %43 = zext i32 %42 to i64
  %44 = icmp samesign ult i64 %indvars.iv.next, %43
  br i1 %44, label %.lr.ph, label %.loopexit, !llvm.loop !26

45:                                               ; preds = %2
  %46 = load i32, ptr @switch_record_cnt, align 4
  store i32 %46, ptr %1, align 4
  br label %.loopexit

47:                                               ; preds = %2
  store i32 0, ptr %1, align 4
  br label %.loopexit

48:                                               ; preds = %2
  %49 = tail call i32 (ptr, ...) @slurm_error(ptr noundef nonnull @.str.14, i32 noundef %0) #13
  br label %.loopexit

.loopexit:                                        ; preds = %.lr.ph, %3, %48, %47, %45
  %.0 = phi i32 [ -1, %48 ], [ 0, %47 ], [ 0, %45 ], [ 0, %3 ], [ 0, %.lr.ph ]
  ret i32 %.0
}